target datalayout = "e-m:e-p270:32:32-p271:32:32-p272:64:64-i64:64-i128:128-f80:128-n8:16:32:64-S128"
target triple = "x86_64-pc-linux-gnu"

%struct.timeval = type { i64, i64 }
%struct._logentry = type { i32, i8, i16, i64, %struct.timeval, i32, [0 x %union.anon] }
%union.anon = type { i8 }
%struct._stritem = type { ptr, ptr, ptr, i32, i32, i32, i16, i16, i8, i8, [0 x %union.anon.12] }
%union.anon.12 = type { i64 }
%struct.logentry_eviction = type { i64, i32, i32, i16, i8, i8, [0 x i8] }

@current_time = external global i32, align 4

; Function Attrs: nounwind uwtable
define internal void @_logger_log_evictions(ptr noundef %0, ptr noundef %1, ptr noundef %2, ptr noundef %3) #0 {
  %5 = alloca ptr, align 8
  %6 = alloca ptr, align 8
  %7 = alloca ptr, align 8
  %8 = alloca ptr, align 8
  %9 = alloca ptr, align 8
  %10 = alloca ptr, align 8
  store ptr %0, ptr %5, align 8, !tbaa !33
  store ptr %1, ptr %6, align 8, !tbaa !30
  store ptr %2, ptr %7, align 8, !tbaa !28
  store ptr %3, ptr %8, align 8, !tbaa !105
  call void @llvm.lifetime.start.p0(i64 8, ptr %9) #11
  %11 = load ptr, ptr %7, align 8, !tbaa !28
  store ptr %11, ptr %9, align 8, !tbaa !110
  call void @llvm.lifetime.start.p0(i64 8, ptr %10) #11
  %12 = load ptr, ptr %5, align 8, !tbaa !33
  %13 = getelementptr inbounds nuw %struct._logentry, ptr %12, i32 0, i32 6
  %14 = getelementptr inbounds [0 x %union.anon], ptr %13, i64 0, i64 0
  store ptr %14, ptr %10, align 8, !tbaa !112
  %15 = load ptr, ptr %9, align 8, !tbaa !110
  %16 = getelementptr inbounds nuw %struct._stritem, ptr %15, i32 0, i32 4
  %17 = load i32, ptr %16, align 4, !tbaa !11
  %18 = icmp ugt i32 %17, 0
  br i1 %18, label %19, label %26

19:                                               ; preds = %4
  %20 = load ptr, ptr %9, align 8, !tbaa !110
  %21 = getelementptr inbounds nuw %struct._stritem, ptr %20, i32 0, i32 4
  %22 = load i32, ptr %21, align 4, !tbaa !11
  %23 = load volatile i32, ptr @current_time, align 4, !tbaa !11
  %24 = sub i32 %22, %23
  %25 = zext i32 %24 to i64
  br label %27

26:                                               ; preds = %4
  br label %27

27:                                               ; preds = %26, %19
  %28 = phi i64 [ %25, %19 ], [ -1, %26 ]
  %29 = load ptr, ptr %10, align 8, !tbaa !112
  %30 = getelementptr inbounds nuw %struct.logentry_eviction, ptr %29, i32 0, i32 0
  store i64 %28, ptr %30, align 8, !tbaa !114
  %31 = load volatile i32, ptr @current_time, align 4, !tbaa !11
  %32 = load ptr, ptr %9, align 8, !tbaa !110
  %33 = getelementptr inbounds nuw %struct._stritem, ptr %32, i32 0, i32 3
  %34 = load i32, ptr %33, align 8, !tbaa !11
  %35 = sub i32 %31, %34
  %36 = load ptr, ptr %10, align 8, !tbaa !112
  %37 = getelementptr inbounds nuw %struct.logentry_eviction, ptr %36, i32 0, i32 2
  store i32 %35, ptr %37, align 4, !tbaa !11
  %38 = load ptr, ptr %9, align 8, !tbaa !110
  %39 = getelementptr inbounds nuw %struct._stritem, ptr %38, i32 0, i32 7
  %40 = load i16, ptr %39, align 2, !tbaa !38
  %41 = load ptr, ptr %10, align 8, !tbaa !112
  %42 = getelementptr inbounds nuw %struct.logentry_eviction, ptr %41, i32 0, i32 3
  store i16 %40, ptr %42, align 8, !tbaa !38
  %43 = load ptr, ptr %9, align 8, !tbaa !110
  %44 = getelementptr inbounds nuw %struct._stritem, ptr %43, i32 0, i32 9
  %45 = load i8, ptr %44, align 1, !tbaa !36
  %46 = load ptr, ptr %10, align 8, !tbaa !112
  %47 = getelementptr inbounds nuw %struct.logentry_eviction, ptr %46, i32 0, i32 4
  store i8 %45, ptr %47, align 2, !tbaa !36
  %48 = load ptr, ptr %9, align 8, !tbaa !110
  %49 = getelementptr inbounds nuw %struct._stritem, ptr %48, i32 0, i32 5
  %50 = load i32, ptr %49, align 8, !tbaa !11
  %51 = load ptr, ptr %10, align 8, !tbaa !112
  %52 = getelementptr inbounds nuw %struct.logentry_eviction, ptr %51, i32 0, i32 1
  store i32 %50, ptr %52, align 8, !tbaa !11
  %53 = load ptr, ptr %9, align 8, !tbaa !110
  %54 = getelementptr inbounds nuw %struct._stritem, ptr %53, i32 0, i32 8
  %55 = load i8, ptr %54, align 8, !tbaa !36
  %56 = zext i8 %55 to i32
  %57 = and i32 %56, -193
  %58 = trunc i32 %57 to i8
  %59 = load ptr, ptr %10, align 8, !tbaa !112
  %60 = getelementptr inbounds nuw %struct.logentry_eviction, ptr %59, i32 0, i32 5
  store i8 %58, ptr %60, align 1, !tbaa !36
  %61 = load ptr, ptr %10, align 8, !tbaa !112
  %62 = getelementptr inbounds nuw %struct.logentry_eviction, ptr %61, i32 0, i32 6
  %63 = getelementptr inbounds [0 x i8], ptr %62, i64 0, i64 0
  %64 = load ptr, ptr %9, align 8, !tbaa !110
  %65 = getelementptr inbounds nuw %struct._stritem, ptr %64, i32 0, i32 10
  %66 = load ptr, ptr %9, align 8, !tbaa !110
  %67 = getelementptr inbounds nuw %struct._stritem, ptr %66, i32 0, i32 7
  %68 = load i16, ptr %67, align 2, !tbaa !38
  %69 = zext i16 %68 to i32
  %70 = and i32 %69, 2
  %71 = icmp ne i32 %70, 0
  %72 = select i1 %71, i64 8, i64 0
  %73 = getelementptr inbounds nuw i8, ptr %65, i64 %72
  %74 = load ptr, ptr %9, align 8, !tbaa !110
  %75 = getelementptr inbounds nuw %struct._stritem, ptr %74, i32 0, i32 9
  %76 = load i8, ptr %75, align 1, !tbaa !36
  %77 = zext i8 %76 to i64
  call void @llvm.memcpy.p0.p0.i64(ptr align 4 %63, ptr align 1 %73, i64 %77, i1 false)
  %78 = load ptr, ptr %10, align 8, !tbaa !112
  %79 = getelementptr inbounds nuw %struct.logentry_eviction, ptr %78, i32 0, i32 4
  %80 = load i8, ptr %79, align 2, !tbaa !36
  %81 = zext i8 %80 to i64
  %82 = add i64 24, %81
  %83 = trunc i64 %82 to i32
  %84 = load ptr, ptr %5, align 8, !tbaa !33
  %85 = getelementptr inbounds nuw %struct._logentry, ptr %84, i32 0, i32 5
  store i32 %83, ptr %85, align 8, !tbaa !11
  call void @llvm.lifetime.end.p0(i64 8, ptr %10) #11
  call void @llvm.lifetime.end.p0(i64 8, ptr %9) #11
  ret void
}