; Function Attrs: mustprogress nofree norecurse nounwind willreturn uwtable
define internal void @_logger_log_evictions(ptr noundef writeonly captures(none) initializes((32, 56)) %0, ptr readnone captures(none) %1, ptr noundef readonly captures(none) %2, ptr readnone captures(none) %3) #13 {
  %5 = getelementptr inbounds nuw i8, ptr %2, i64 28
  %6 = load i32, ptr %5, align 4, !tbaa !9
  %.not = icmp eq i32 %6, 0
  br i1 %.not, label %11, label %7

7:                                                ; preds = %4
  %8 = load volatile i32, ptr @current_time, align 4, !tbaa !9
  %9 = sub i32 %6, %8
  %10 = zext i32 %9 to i64
  br label %11

11:                                               ; preds = %4, %7
  %12 = phi i64 [ %10, %7 ], [ -1, %4 ]
  %13 = getelementptr inbounds nuw i8, ptr %0, i64 36
  store i64 %12, ptr %13, align 8, !tbaa !93
  %14 = load volatile i32, ptr @current_time, align 4, !tbaa !9
  %15 = getelementptr inbounds nuw i8, ptr %2, i64 24
  %16 = load i32, ptr %15, align 8, !tbaa !9
  %17 = sub i32 %14, %16
  %18 = getelementptr inbounds nuw i8, ptr %0, i64 48
  store i32 %17, ptr %18, align 4, !tbaa !9
  %19 = getelementptr inbounds nuw i8, ptr %2, i64 38
  %20 = load i16, ptr %19, align 2, !tbaa !33
  %21 = getelementptr inbounds nuw i8, ptr %0, i64 52
  store i16 %20, ptr %21, align 8, !tbaa !33
  %22 = getelementptr inbounds nuw i8, ptr %2, i64 41
  %23 = load i8, ptr %22, align 1, !tbaa !31
  %24 = getelementptr inbounds nuw i8, ptr %0, i64 54
  store i8 %23, ptr %24, align 2, !tbaa !31
  %25 = getelementptr inbounds nuw i8, ptr %2, i64 32
  %26 = load i32, ptr %25, align 8, !tbaa !9
  %27 = getelementptr inbounds nuw i8, ptr %0, i64 44
  store i32 %26, ptr %27, align 8, !tbaa !9
  %28 = getelementptr inbounds nuw i8, ptr %2, i64 40
  %29 = load i8, ptr %28, align 8, !tbaa !31
  %30 = and i8 %29, 63
  %31 = getelementptr inbounds nuw i8, ptr %0, i64 55
  store i8 %30, ptr %31, align 1, !tbaa !31
  %32 = getelementptr inbounds nuw i8, ptr %0, i64 56
  %33 = getelementptr inbounds nuw i8, ptr %2, i64 48
  %34 = load i16, ptr %19, align 2, !tbaa !33
  %35 = shl i16 %34, 2
  %36 = and i16 %35, 8
  %37 = zext nneg i16 %36 to i64
  %38 = getelementptr inbounds nuw i8, ptr %33, i64 %37
  %39 = load i8, ptr %22, align 1, !tbaa !31
  %40 = zext i8 %39 to i64
  tail call void @llvm.memcpy.p0.p0.i64(ptr nonnull align 4 %32, ptr nonnull align 1 %38, i64 %40, i1 false)
  %41 = zext i8 %23 to i32
  %42 = add nuw nsw i32 %41, 24
  %43 = getelementptr inbounds nuw i8, ptr %0, i64 32
  store i32 %42, ptr %43, align 8, !tbaa !9
  ret void
}